target datalayout = "e-m:e-p270:32:32-p271:32:32-p272:64:64-i64:64-i128:128-f80:128-n8:16:32:64-S128"
target triple = "x86_64-pc-linux-gnu"

%struct.IpvideoContext = type { ptr, %struct.HpelDSPContext, ptr, ptr, ptr, ptr, ptr, i32, ptr, i32, i32, %struct.GetByteContext, %struct.GetByteContext, ptr, i32, i32, i32, [256 x i32] }
%struct.HpelDSPContext = type { [4 x [4 x ptr]], [4 x [4 x ptr]], [4 x [4 x ptr]], [4 x ptr] }
%struct.GetByteContext = type { ptr, ptr, ptr }

; Function Attrs: alwaysinline nounwind uwtable
define internal i32 @bytestream_get_le16(ptr noundef %0) #4 {
  %2 = alloca ptr, align 8
  store ptr %0, ptr %2, align 8, !tbaa !94
  %3 = load ptr, ptr %2, align 8, !tbaa !94
  %4 = load ptr, ptr %3, align 8, !tbaa !59
  %5 = getelementptr inbounds i8, ptr %4, i64 2
  store ptr %5, ptr %3, align 8, !tbaa !59
  %6 = load ptr, ptr %2, align 8, !tbaa !94
  %7 = load ptr, ptr %6, align 8, !tbaa !59
  %8 = getelementptr inbounds i8, ptr %7, i64 -2
  %9 = load i16, ptr %8, align 1, !tbaa !62
  %10 = zext i16 %9 to i32
  ret i32 %10
}

; Function Attrs: alwaysinline nounwind uwtable
define internal i32 @bytestream2_get_le16u(ptr noundef %0) #4 {
  %2 = alloca ptr, align 8
  store ptr %0, ptr %2, align 8, !tbaa !67
  %3 = load ptr, ptr %2, align 8, !tbaa !67
  %4 = getelementptr inbounds nuw %struct.GetByteContext, ptr %3, i32 0, i32 0
  %5 = call i32 @bytestream_get_le16(ptr noundef %4)
  ret i32 %5
}

; Function Attrs: alwaysinline nounwind uwtable
define internal i32 @bytestream2_get_le16(ptr noundef %0) #4 {
  %2 = alloca i32, align 4
  %3 = alloca ptr, align 8
  store ptr %0, ptr %3, align 8, !tbaa !67
  %4 = load ptr, ptr %3, align 8, !tbaa !67
  %5 = getelementptr inbounds nuw %struct.GetByteContext, ptr %4, i32 0, i32 1
  %6 = load ptr, ptr %5, align 8, !tbaa !71
  %7 = load ptr, ptr %3, align 8, !tbaa !67
  %8 = getelementptr inbounds nuw %struct.GetByteContext, ptr %7, i32 0, i32 0
  %9 = load ptr, ptr %8, align 8, !tbaa !69
  %10 = ptrtoint ptr %6 to i64
  %11 = ptrtoint ptr %9 to i64
  %12 = sub i64 %10, %11
  %13 = icmp slt i64 %12, 2
  br i1 %13, label %14, label %20

14:                                               ; preds = %1
  %15 = load ptr, ptr %3, align 8, !tbaa !67
  %16 = getelementptr inbounds nuw %struct.GetByteContext, ptr %15, i32 0, i32 1
  %17 = load ptr, ptr %16, align 8, !tbaa !71
  %18 = load ptr, ptr %3, align 8, !tbaa !67
  %19 = getelementptr inbounds nuw %struct.GetByteContext, ptr %18, i32 0, i32 0
  store ptr %17, ptr %19, align 8, !tbaa !69
  store i32 0, ptr %2, align 4
  br label %23

20:                                               ; preds = %1
  %21 = load ptr, ptr %3, align 8, !tbaa !67
  %22 = call i32 @bytestream2_get_le16u(ptr noundef %21)
  store i32 %22, ptr %2, align 4
  br label %23

23:                                               ; preds = %20, %14
  %24 = load i32, ptr %2, align 4
  ret i32 %24
}

; Function Attrs: nounwind uwtable
define internal i32 @ipvideo_decode_block_opcode_0xE_16(ptr noundef %0, ptr noundef %1) #1 {
  %3 = alloca ptr, align 8
  %4 = alloca ptr, align 8
  %5 = alloca i32, align 4
  %6 = alloca i32, align 4
  %7 = alloca i16, align 2
  %8 = alloca ptr, align 8
  store ptr %0, ptr %3, align 8, !tbaa !29
  store ptr %1, ptr %4, align 8, !tbaa !53
  call void @llvm.lifetime.start.p0(i64 4, ptr %5) #11
  call void @llvm.lifetime.start.p0(i64 4, ptr %6) #11
  call void @llvm.lifetime.start.p0(i64 2, ptr %7) #11
  call void @llvm.lifetime.start.p0(i64 8, ptr %8) #11
  %9 = load ptr, ptr %3, align 8, !tbaa !29
  %10 = getelementptr inbounds nuw %struct.IpvideoContext, ptr %9, i32 0, i32 13
  %11 = load ptr, ptr %10, align 8, !tbaa !77
  store ptr %11, ptr %8, align 8, !tbaa !135
  %12 = load ptr, ptr %3, align 8, !tbaa !29
  %13 = getelementptr inbounds nuw %struct.IpvideoContext, ptr %12, i32 0, i32 11
  %14 = call i32 @bytestream2_get_le16(ptr noundef %13)
  %15 = trunc i32 %14 to i16
  store i16 %15, ptr %7, align 2, !tbaa !75
  store i32 0, ptr %6, align 4, !tbaa !61
  br label %16

16:                                               ; preds = %39, %2
  %17 = load i32, ptr %6, align 4, !tbaa !61
  %18 = icmp slt i32 %17, 8
  br i1 %18, label %19, label %42

19:                                               ; preds = %16
  store i32 0, ptr %5, align 4, !tbaa !61
  br label %20

20:                                               ; preds = %29, %19
  %21 = load i32, ptr %5, align 4, !tbaa !61
  %22 = icmp slt i32 %21, 8
  br i1 %22, label %23, label %32

23:                                               ; preds = %20
  %24 = load i16, ptr %7, align 2, !tbaa !75
  %25 = load ptr, ptr %8, align 8, !tbaa !135
  %26 = load i32, ptr %5, align 4, !tbaa !61
  %27 = sext i32 %26 to i64
  %28 = getelementptr inbounds i16, ptr %25, i64 %27
  store i16 %24, ptr %28, align 2, !tbaa !75
  br label %29

29:                                               ; preds = %23
  %30 = load i32, ptr %5, align 4, !tbaa !61
  %31 = add nsw i32 %30, 1
  store i32 %31, ptr %5, align 4, !tbaa !61
  br label %20, !llvm.loop !168

32:                                               ; preds = %20
  %33 = load ptr, ptr %3, align 8, !tbaa !29
  %34 = getelementptr inbounds nuw %struct.IpvideoContext, ptr %33, i32 0, i32 15
  %35 = load i32, ptr %34, align 4, !tbaa !72
  %36 = load ptr, ptr %8, align 8, !tbaa !135
  %37 = sext i32 %35 to i64
  %38 = getelementptr inbounds i16, ptr %36, i64 %37
  store ptr %38, ptr %8, align 8, !tbaa !135
  br label %39

39:                                               ; preds = %32
  %40 = load i32, ptr %6, align 4, !tbaa !61
  %41 = add nsw i32 %40, 1
  store i32 %41, ptr %6, align 4, !tbaa !61
  br label %16, !llvm.loop !169

42:                                               ; preds = %16
  call void @llvm.lifetime.end.p0(i64 8, ptr %8) #11
  call void @llvm.lifetime.end.p0(i64 2, ptr %7) #11
  call void @llvm.lifetime.end.p0(i64 4, ptr %6) #11
  call void @llvm.lifetime.end.p0(i64 4, ptr %5) #11
  ret i32 0
}