; Function Attrs: nofree norecurse nosync nounwind memory(readwrite, inaccessiblemem: none) uwtable
define internal noundef i32 @ipvideo_decode_block_opcode_0xE_16(ptr noundef captures(none) %0, ptr readnone captures(none) %1) #6 {
  %3 = getelementptr inbounds nuw i8, ptr %0, i64 536
  %4 = load ptr, ptr %3, align 8, !tbaa !67
  %5 = getelementptr inbounds nuw i8, ptr %0, i64 488
  %6 = getelementptr inbounds nuw i8, ptr %0, i64 496
  %7 = load ptr, ptr %6, align 8, !tbaa !60
  %8 = load ptr, ptr %5, align 8, !tbaa !58
  %9 = ptrtoint ptr %7 to i64
  %10 = ptrtoint ptr %8 to i64
  %11 = sub i64 %9, %10
  %12 = icmp slt i64 %11, 2
  br i1 %12, label %13, label %14

13:                                               ; preds = %2
  store ptr %7, ptr %5, align 8, !tbaa !58
  br label %bytestream2_get_le16.exit

14:                                               ; preds = %2
  %15 = getelementptr inbounds nuw i8, ptr %8, i64 2
  store ptr %15, ptr %5, align 8, !tbaa !53
  %16 = load i16, ptr %8, align 1, !tbaa !54
  br label %bytestream2_get_le16.exit

bytestream2_get_le16.exit:                        ; preds = %13, %14
  %.0.i = phi i16 [ 0, %13 ], [ %16, %14 ]
  %17 = getelementptr inbounds nuw i8, ptr %0, i64 548
  %18 = load i32, ptr %17, align 4, !tbaa !63
  %19 = sext i32 %18 to i64
  br label %.preheader

.preheader:                                       ; preds = %bytestream2_get_le16.exit, %22
  %.014 = phi ptr [ %4, %bytestream2_get_le16.exit ], [ %23, %22 ]
  %.01113 = phi i32 [ 0, %bytestream2_get_le16.exit ], [ %24, %22 ]
  br label %20

20:                                               ; preds = %.preheader, %20
  %indvars.iv = phi i64 [ 0, %.preheader ], [ %indvars.iv.next, %20 ]
  %21 = getelementptr inbounds nuw i16, ptr %.014, i64 %indvars.iv
  store i16 %.0.i, ptr %21, align 2, !tbaa !116
  %indvars.iv.next = add nuw nsw i64 %indvars.iv, 1
  %exitcond.not = icmp eq i64 %indvars.iv.next, 8
  br i1 %exitcond.not, label %22, label %20, !llvm.loop !150

22:                                               ; preds = %20
  %23 = getelementptr inbounds i16, ptr %.014, i64 %19
  %24 = add nuw nsw i32 %.01113, 1
  %exitcond16.not = icmp eq i32 %24, 8
  br i1 %exitcond16.not, label %25, label %.preheader, !llvm.loop !151

25:                                               ; preds = %22
  ret i32 0
}